target datalayout = "e-m:e-p270:32:32-p271:32:32-p272:64:64-i64:64-i128:128-f80:128-n8:16:32:64-S128"
target triple = "x86_64-unknown-linux-gnu"

; Function Attrs: nounwind uwtable
define internal i32 @do_buf(ptr noundef %buf, i32 noundef %buflen, i32 noundef %type, i8 noundef zeroext %flags, ptr noundef %quotes, ptr noundef %io_ch, ptr noundef %arg) #0 {
entry:
  %retval = alloca i32, align 4
  %buf.addr = alloca ptr, align 8
  %buflen.addr = alloca i32, align 4
  %type.addr = alloca i32, align 4
  %flags.addr = alloca i8, align 1
  %quotes.addr = alloca ptr, align 8
  %io_ch.addr = alloca ptr, align 8
  %arg.addr = alloca ptr, align 8
  %i = alloca i32, align 4
  %outlen = alloca i32, align 4
  %len = alloca i32, align 4
  %orflags = alloca i8, align 1
  %p = alloca ptr, align 8
  %q = alloca ptr, align 8
  %c = alloca i64, align 8
  %utfbuf = alloca [6 x i8], align 1
  %utflen = alloca i32, align 4
  store ptr %buf, ptr %buf.addr, align 8
  store i32 %buflen, ptr %buflen.addr, align 4
  store i32 %type, ptr %type.addr, align 4
  store i8 %flags, ptr %flags.addr, align 1
  store ptr %quotes, ptr %quotes.addr, align 8
  store ptr %io_ch, ptr %io_ch.addr, align 8
  store ptr %arg, ptr %arg.addr, align 8
  %0 = load ptr, ptr %buf.addr, align 8
  store ptr %0, ptr %p, align 8
  %1 = load ptr, ptr %buf.addr, align 8
  %2 = load i32, ptr %buflen.addr, align 4
  %idx.ext = sext i32 %2 to i64
  %add.ptr = getelementptr inbounds i8, ptr %1, i64 %idx.ext
  store ptr %add.ptr, ptr %q, align 8
  store i32 0, ptr %outlen, align 4
  br label %while.cond

while.cond:                                       ; preds = %if.end66, %entry
  %3 = load ptr, ptr %p, align 8
  %4 = load ptr, ptr %q, align 8
  %cmp = icmp ne ptr %3, %4
  br i1 %cmp, label %while.body, label %while.end

while.body:                                       ; preds = %while.cond
  %5 = load ptr, ptr %p, align 8
  %6 = load ptr, ptr %buf.addr, align 8
  %cmp1 = icmp eq ptr %5, %6
  br i1 %cmp1, label %land.lhs.true, label %if.else

land.lhs.true:                                    ; preds = %while.body
  %7 = load i8, ptr %flags.addr, align 1
  %conv = zext i8 %7 to i32
  %and = and i32 %conv, 1
  %tobool = icmp ne i32 %and, 0
  br i1 %tobool, label %if.then, label %if.else

if.then:                                          ; preds = %land.lhs.true
  store i8 32, ptr %orflags, align 1
  br label %if.end

if.else:                                          ; preds = %land.lhs.true, %while.body
  store i8 0, ptr %orflags, align 1
  br label %if.end

if.end:                                           ; preds = %if.else, %if.then
  %8 = load i32, ptr %type.addr, align 4
  %and2 = and i32 %8, 7
  switch i32 %and2, label %sw.default [
    i32 4, label %sw.bb
    i32 2, label %sw.bb14
    i32 1, label %sw.bb21
    i32 0, label %sw.bb24
  ]

sw.bb:                                            ; preds = %if.end
  %9 = load ptr, ptr %p, align 8
  %incdec.ptr = getelementptr inbounds i8, ptr %9, i32 1
  store ptr %incdec.ptr, ptr %p, align 8
  %10 = load i8, ptr %9, align 1
  %conv3 = zext i8 %10 to i64
  %shl = shl i64 %conv3, 24
  store i64 %shl, ptr %c, align 8
  %11 = load ptr, ptr %p, align 8
  %incdec.ptr4 = getelementptr inbounds i8, ptr %11, i32 1
  store ptr %incdec.ptr4, ptr %p, align 8
  %12 = load i8, ptr %11, align 1
  %conv5 = zext i8 %12 to i64
  %shl6 = shl i64 %conv5, 16
  %13 = load i64, ptr %c, align 8
  %or = or i64 %13, %shl6
  store i64 %or, ptr %c, align 8
  %14 = load ptr, ptr %p, align 8
  %incdec.ptr7 = getelementptr inbounds i8, ptr %14, i32 1
  store ptr %incdec.ptr7, ptr %p, align 8
  %15 = load i8, ptr %14, align 1
  %conv8 = zext i8 %15 to i64
  %shl9 = shl i64 %conv8, 8
  %16 = load i64, ptr %c, align 8
  %or10 = or i64 %16, %shl9
  store i64 %or10, ptr %c, align 8
  %17 = load ptr, ptr %p, align 8
  %incdec.ptr11 = getelementptr inbounds i8, ptr %17, i32 1
  store ptr %incdec.ptr11, ptr %p, align 8
  %18 = load i8, ptr %17, align 1
  %conv12 = zext i8 %18 to i64
  %19 = load i64, ptr %c, align 8
  %or13 = or i64 %19, %conv12
  store i64 %or13, ptr %c, align 8
  br label %sw.epilog

sw.bb14:                                          ; preds = %if.end
  %20 = load ptr, ptr %p, align 8
  %incdec.ptr15 = getelementptr inbounds i8, ptr %20, i32 1
  store ptr %incdec.ptr15, ptr %p, align 8
  %21 = load i8, ptr %20, align 1
  %conv16 = zext i8 %21 to i64
  %shl17 = shl i64 %conv16, 8
  store i64 %shl17, ptr %c, align 8
  %22 = load ptr, ptr %p, align 8
  %incdec.ptr18 = getelementptr inbounds i8, ptr %22, i32 1
  store ptr %incdec.ptr18, ptr %p, align 8
  %23 = load i8, ptr %22, align 1
  %conv19 = zext i8 %23 to i64
  %24 = load i64, ptr %c, align 8
  %or20 = or i64 %24, %conv19
  store i64 %or20, ptr %c, align 8
  br label %sw.epilog

sw.bb21:                                          ; preds = %if.end
  %25 = load ptr, ptr %p, align 8
  %incdec.ptr22 = getelementptr inbounds i8, ptr %25, i32 1
  store ptr %incdec.ptr22, ptr %p, align 8
  %26 = load i8, ptr %25, align 1
  %conv23 = zext i8 %26 to i64
  store i64 %conv23, ptr %c, align 8
  br label %sw.epilog

sw.bb24:                                          ; preds = %if.end
  %27 = load ptr, ptr %p, align 8
  %28 = load i32, ptr %buflen.addr, align 4
  %call = call i32 @UTF8_getc(ptr noundef %27, i32 noundef %28, ptr noundef %c)
  store i32 %call, ptr %i, align 4
  %29 = load i32, ptr %i, align 4
  %cmp25 = icmp slt i32 %29, 0
  br i1 %cmp25, label %if.then27, label %if.end28

if.then27:                                        ; preds = %sw.bb24
  store i32 -1, ptr %retval, align 4
  br label %return

if.end28:                                         ; preds = %sw.bb24
  %30 = load i32, ptr %i, align 4
  %31 = load ptr, ptr %p, align 8
  %idx.ext29 = sext i32 %30 to i64
  %add.ptr30 = getelementptr inbounds i8, ptr %31, i64 %idx.ext29
  store ptr %add.ptr30, ptr %p, align 8
  br label %sw.epilog

sw.default:                                       ; preds = %if.end
  store i32 -1, ptr %retval, align 4
  br label %return

sw.epilog:                                        ; preds = %if.end28, %sw.bb21, %sw.bb14, %sw.bb
  %32 = load ptr, ptr %p, align 8
  %33 = load ptr, ptr %q, align 8
  %cmp31 = icmp eq ptr %32, %33
  br i1 %cmp31, label %land.lhs.true33, label %if.end38

land.lhs.true33:                                  ; preds = %sw.epilog
  %34 = load i8, ptr %flags.addr, align 1
  %conv34 = zext i8 %34 to i32
  %and35 = and i32 %conv34, 1
  %tobool36 = icmp ne i32 %and35, 0
  br i1 %tobool36, label %if.then37, label %if.end38

if.then37:                                        ; preds = %land.lhs.true33
  store i8 64, ptr %orflags, align 1
  br label %if.end38

if.end38:                                         ; preds = %if.then37, %land.lhs.true33, %sw.epilog
  %35 = load i32, ptr %type.addr, align 4
  %and39 = and i32 %35, 8
  %tobool40 = icmp ne i32 %and39, 0
  br i1 %tobool40, label %if.then41, label %if.else55

if.then41:                                        ; preds = %if.end38
  %arraydecay = getelementptr inbounds [6 x i8], ptr %utfbuf, i64 0, i64 0
  %36 = load i64, ptr %c, align 8
  %call42 = call i32 @UTF8_putc(ptr noundef %arraydecay, i32 noundef 6, i64 noundef %36)
  store i32 %call42, ptr %utflen, align 4
  store i32 0, ptr %i, align 4
  br label %for.cond

for.cond:                                         ; preds = %for.inc, %if.then41
  %37 = load i32, ptr %i, align 4
  %38 = load i32, ptr %utflen, align 4
  %cmp43 = icmp slt i32 %37, %38
  br i1 %cmp43, label %for.body, label %for.end

for.body:                                         ; preds = %for.cond
  %39 = load i32, ptr %i, align 4
  %idxprom = sext i32 %39 to i64
  %arrayidx = getelementptr inbounds [6 x i8], ptr %utfbuf, i64 0, i64 %idxprom
  %40 = load i8, ptr %arrayidx, align 1
  %conv45 = zext i8 %40 to i64
  %41 = load i8, ptr %flags.addr, align 1
  %conv46 = zext i8 %41 to i32
  %42 = load i8, ptr %orflags, align 1
  %conv47 = zext i8 %42 to i32
  %or48 = or i32 %conv46, %conv47
  %conv49 = trunc i32 %or48 to i8
  %43 = load ptr, ptr %quotes.addr, align 8
  %44 = load ptr, ptr %io_ch.addr, align 8
  %45 = load ptr, ptr %arg.addr, align 8
  %call50 = call i32 @do_esc_char(i64 noundef %conv45, i8 noundef zeroext %conv49, ptr noundef %43, ptr noundef %44, ptr noundef %45)
  store i32 %call50, ptr %len, align 4
  %46 = load i32, ptr %len, align 4
  %cmp51 = icmp slt i32 %46, 0
  br i1 %cmp51, label %if.then53, label %if.end54

if.then53:                                        ; preds = %for.body
  store i32 -1, ptr %retval, align 4
  br label %return

if.end54:                                         ; preds = %for.body
  %47 = load i32, ptr %len, align 4
  %48 = load i32, ptr %outlen, align 4
  %add = add nsw i32 %48, %47
  store i32 %add, ptr %outlen, align 4
  br label %for.inc

for.inc:                                          ; preds = %if.end54
  %49 = load i32, ptr %i, align 4
  %inc = add nsw i32 %49, 1
  store i32 %inc, ptr %i, align 4
  br label %for.cond, !llvm.loop !10

for.end:                                          ; preds = %for.cond
  br label %if.end66

if.else55:                                        ; preds = %if.end38
  %50 = load i64, ptr %c, align 8
  %51 = load i8, ptr %flags.addr, align 1
  %conv56 = zext i8 %51 to i32
  %52 = load i8, ptr %orflags, align 1
  %conv57 = zext i8 %52 to i32
  %or58 = or i32 %conv56, %conv57
  %conv59 = trunc i32 %or58 to i8
  %53 = load ptr, ptr %quotes.addr, align 8
  %54 = load ptr, ptr %io_ch.addr, align 8
  %55 = load ptr, ptr %arg.addr, align 8
  %call60 = call i32 @do_esc_char(i64 noundef %50, i8 noundef zeroext %conv59, ptr noundef %53, ptr noundef %54, ptr noundef %55)
  store i32 %call60, ptr %len, align 4
  %56 = load i32, ptr %len, align 4
  %cmp61 = icmp slt i32 %56, 0
  br i1 %cmp61, label %if.then63, label %if.end64

if.then63:                                        ; preds = %if.else55
  store i32 -1, ptr %retval, align 4
  br label %return

if.end64:                                         ; preds = %if.else55
  %57 = load i32, ptr %len, align 4
  %58 = load i32, ptr %outlen, align 4
  %add65 = add nsw i32 %58, %57
  store i32 %add65, ptr %outlen, align 4
  br label %if.end66

if.end66:                                         ; preds = %if.end64, %for.end
  br label %while.cond, !llvm.loop !11

while.end:                                        ; preds = %while.cond
  %59 = load i32, ptr %outlen, align 4
  store i32 %59, ptr %retval, align 4
  br label %return

return:                                           ; preds = %while.end, %if.then63, %if.then53, %sw.default, %if.then27
  %60 = load i32, ptr %retval, align 4
  ret i32 %60
}