; Function Attrs: nounwind uwtable
define internal fastcc range(i32 -1, -2147483648) i32 @do_buf(ptr noundef %buf, i32 noundef %buflen, i32 noundef %type, i8 noundef zeroext range(i8 0, 16) %flags, ptr noundef %quotes, ptr noundef readonly captures(none) %io_ch, ptr noundef %arg) unnamed_addr #0 {
entry:
  %c = alloca i64, align 8
  %utfbuf = alloca [6 x i8], align 1
  %idx.ext = sext i32 %buflen to i64
  %add.ptr = getelementptr inbounds i8, ptr %buf, i64 %idx.ext
  %cmp.not41 = icmp eq i32 %buflen, 0
  br i1 %cmp.not41, label %return, label %while.body.lr.ph

while.body.lr.ph:                                 ; preds = %entry
  %0 = and i8 %flags, 1
  %tobool.not = icmp eq i8 %0, 0
  %and2 = and i32 %type, 7
  switch i32 %and2, label %return [
    i32 4, label %while.body.lr.ph.split
    i32 2, label %while.body.lr.ph.split
    i32 1, label %while.body.lr.ph.split
    i32 0, label %while.body.lr.ph.split
  ]

while.body.lr.ph.split:                           ; preds = %while.body.lr.ph, %while.body.lr.ph, %while.body.lr.ph, %while.body.lr.ph
  %and39 = and i32 %type, 8
  %tobool40.not = icmp eq i32 %and39, 0
  br i1 %tobool40.not, label %while.body.us, label %while.body

while.body.us:                                    ; preds = %while.body.lr.ph.split, %if.end64.us
  %p.043.us = phi ptr [ %p.1.us, %if.end64.us ], [ %buf, %while.body.lr.ph.split ]
  %outlen.042.us = phi i32 [ %add65.us, %if.end64.us ], [ 0, %while.body.lr.ph.split ]
  %cmp1.us = icmp ne ptr %p.043.us, %buf
  %or.cond.us = or i1 %tobool.not, %cmp1.us
  %orflags.0.us = select i1 %or.cond.us, i8 0, i8 32
  switch i32 %and2, label %sw.bb24.us [
    i32 4, label %sw.bb.us
    i32 2, label %sw.bb14.us
    i32 1, label %sw.bb21.us
  ]

sw.bb24.us:                                       ; preds = %while.body.us
  %call.us = call i32 @UTF8_getc(ptr noundef %p.043.us, i32 noundef %buflen, ptr noundef nonnull %c) #10
  %cmp25.us = icmp slt i32 %call.us, 0
  br i1 %cmp25.us, label %return, label %if.end28.us

if.end28.us:                                      ; preds = %sw.bb24.us
  %idx.ext29.us = zext nneg i32 %call.us to i64
  %add.ptr30.us = getelementptr inbounds nuw i8, ptr %p.043.us, i64 %idx.ext29.us
  %.pre54 = load i64, ptr %c, align 8
  br label %sw.epilog.us

sw.bb21.us:                                       ; preds = %while.body.us
  %incdec.ptr22.us = getelementptr inbounds nuw i8, ptr %p.043.us, i64 1
  %1 = load i8, ptr %p.043.us, align 1
  %conv23.us = zext i8 %1 to i64
  store i64 %conv23.us, ptr %c, align 8
  br label %sw.epilog.us

sw.bb14.us:                                       ; preds = %while.body.us
  %incdec.ptr15.us = getelementptr inbounds nuw i8, ptr %p.043.us, i64 1
  %2 = load i8, ptr %p.043.us, align 1
  %conv16.us = zext i8 %2 to i64
  %shl17.us = shl nuw nsw i64 %conv16.us, 8
  store i64 %shl17.us, ptr %c, align 8
  %incdec.ptr18.us = getelementptr inbounds nuw i8, ptr %p.043.us, i64 2
  %3 = load i8, ptr %incdec.ptr15.us, align 1
  %conv19.us = zext i8 %3 to i64
  %or20.us = or disjoint i64 %shl17.us, %conv19.us
  store i64 %or20.us, ptr %c, align 8
  br label %sw.epilog.us

sw.bb.us:                                         ; preds = %while.body.us
  %incdec.ptr.us = getelementptr inbounds nuw i8, ptr %p.043.us, i64 1
  %4 = load i8, ptr %p.043.us, align 1
  %conv3.us = zext i8 %4 to i64
  %shl.us = shl nuw nsw i64 %conv3.us, 24
  store i64 %shl.us, ptr %c, align 8
  %incdec.ptr4.us = getelementptr inbounds nuw i8, ptr %p.043.us, i64 2
  %5 = load i8, ptr %incdec.ptr.us, align 1
  %conv5.us = zext i8 %5 to i64
  %shl6.us = shl nuw nsw i64 %conv5.us, 16
  %or.us = or disjoint i64 %shl6.us, %shl.us
  store i64 %or.us, ptr %c, align 8
  %incdec.ptr7.us = getelementptr inbounds nuw i8, ptr %p.043.us, i64 3
  %6 = load i8, ptr %incdec.ptr4.us, align 1
  %conv8.us = zext i8 %6 to i64
  %shl9.us = shl nuw nsw i64 %conv8.us, 8
  %or10.us = or disjoint i64 %shl9.us, %or.us
  store i64 %or10.us, ptr %c, align 8
  %incdec.ptr11.us = getelementptr inbounds nuw i8, ptr %p.043.us, i64 4
  %7 = load i8, ptr %incdec.ptr7.us, align 1
  %conv12.us = zext i8 %7 to i64
  %or13.us = or disjoint i64 %or10.us, %conv12.us
  store i64 %or13.us, ptr %c, align 8
  br label %sw.epilog.us

sw.epilog.us:                                     ; preds = %sw.bb.us, %sw.bb14.us, %sw.bb21.us, %if.end28.us
  %8 = phi i64 [ %.pre54, %if.end28.us ], [ %conv23.us, %sw.bb21.us ], [ %or20.us, %sw.bb14.us ], [ %or13.us, %sw.bb.us ]
  %p.1.us = phi ptr [ %add.ptr30.us, %if.end28.us ], [ %incdec.ptr22.us, %sw.bb21.us ], [ %incdec.ptr18.us, %sw.bb14.us ], [ %incdec.ptr11.us, %sw.bb.us ]
  %cmp31.us = icmp ne ptr %p.1.us, %add.ptr
  %or.cond35.us = or i1 %tobool.not, %cmp31.us
  %orflags.1.us = select i1 %or.cond35.us, i8 %orflags.0.us, i8 64
  %or5833.us = or disjoint i8 %orflags.1.us, %flags
  %call60.us = call fastcc i32 @do_esc_char(i64 noundef %8, i8 noundef zeroext %or5833.us, ptr noundef %quotes, ptr noundef %io_ch, ptr noundef %arg)
  %cmp61.us = icmp slt i32 %call60.us, 0
  br i1 %cmp61.us, label %return, label %if.end64.us

if.end64.us:                                      ; preds = %sw.epilog.us
  %add65.us = add nuw nsw i32 %call60.us, %outlen.042.us
  %cmp.not.us = icmp eq ptr %p.1.us, %add.ptr
  br i1 %cmp.not.us, label %return, label %while.body.us, !llvm.loop !12

while.body:                                       ; preds = %while.body.lr.ph.split, %if.end66.loopexit
  %p.043 = phi ptr [ %p.1, %if.end66.loopexit ], [ %buf, %while.body.lr.ph.split ]
  %outlen.042 = phi i32 [ %outlen.1.lcssa, %if.end66.loopexit ], [ 0, %while.body.lr.ph.split ]
  %cmp1 = icmp ne ptr %p.043, %buf
  %or.cond = or i1 %tobool.not, %cmp1
  %orflags.0 = select i1 %or.cond, i8 0, i8 32
  switch i32 %and2, label %sw.bb24 [
    i32 4, label %sw.bb
    i32 2, label %sw.bb14
    i32 1, label %sw.bb21
  ]

sw.bb:                                            ; preds = %while.body
  %incdec.ptr = getelementptr inbounds nuw i8, ptr %p.043, i64 1
  %9 = load i8, ptr %p.043, align 1
  %conv3 = zext i8 %9 to i64
  %shl = shl nuw nsw i64 %conv3, 24
  store i64 %shl, ptr %c, align 8
  %incdec.ptr4 = getelementptr inbounds nuw i8, ptr %p.043, i64 2
  %10 = load i8, ptr %incdec.ptr, align 1
  %conv5 = zext i8 %10 to i64
  %shl6 = shl nuw nsw i64 %conv5, 16
  %or = or disjoint i64 %shl6, %shl
  store i64 %or, ptr %c, align 8
  %incdec.ptr7 = getelementptr inbounds nuw i8, ptr %p.043, i64 3
  %11 = load i8, ptr %incdec.ptr4, align 1
  %conv8 = zext i8 %11 to i64
  %shl9 = shl nuw nsw i64 %conv8, 8
  %or10 = or disjoint i64 %shl9, %or
  store i64 %or10, ptr %c, align 8
  %incdec.ptr11 = getelementptr inbounds nuw i8, ptr %p.043, i64 4
  %12 = load i8, ptr %incdec.ptr7, align 1
  %conv12 = zext i8 %12 to i64
  %or13 = or disjoint i64 %or10, %conv12
  store i64 %or13, ptr %c, align 8
  br label %sw.epilog

sw.bb14:                                          ; preds = %while.body
  %incdec.ptr15 = getelementptr inbounds nuw i8, ptr %p.043, i64 1
  %13 = load i8, ptr %p.043, align 1
  %conv16 = zext i8 %13 to i64
  %shl17 = shl nuw nsw i64 %conv16, 8
  store i64 %shl17, ptr %c, align 8
  %incdec.ptr18 = getelementptr inbounds nuw i8, ptr %p.043, i64 2
  %14 = load i8, ptr %incdec.ptr15, align 1
  %conv19 = zext i8 %14 to i64
  %or20 = or disjoint i64 %shl17, %conv19
  store i64 %or20, ptr %c, align 8
  br label %sw.epilog

sw.bb21:                                          ; preds = %while.body
  %incdec.ptr22 = getelementptr inbounds nuw i8, ptr %p.043, i64 1
  %15 = load i8, ptr %p.043, align 1
  %conv23 = zext i8 %15 to i64
  store i64 %conv23, ptr %c, align 8
  br label %sw.epilog

sw.bb24:                                          ; preds = %while.body
  %call = call i32 @UTF8_getc(ptr noundef %p.043, i32 noundef %buflen, ptr noundef nonnull %c) #10
  %cmp25 = icmp slt i32 %call, 0
  br i1 %cmp25, label %return, label %if.end28

if.end28:                                         ; preds = %sw.bb24
  %idx.ext29 = zext nneg i32 %call to i64
  %add.ptr30 = getelementptr inbounds nuw i8, ptr %p.043, i64 %idx.ext29
  %.pre = load i64, ptr %c, align 8
  br label %sw.epilog

sw.epilog:                                        ; preds = %if.end28, %sw.bb21, %sw.bb14, %sw.bb
  %16 = phi i64 [ %.pre, %if.end28 ], [ %conv23, %sw.bb21 ], [ %or20, %sw.bb14 ], [ %or13, %sw.bb ]
  %p.1 = phi ptr [ %add.ptr30, %if.end28 ], [ %incdec.ptr22, %sw.bb21 ], [ %incdec.ptr18, %sw.bb14 ], [ %incdec.ptr11, %sw.bb ]
  %call42 = call i32 @UTF8_putc(ptr noundef nonnull %utfbuf, i32 noundef 6, i64 noundef %16) #10
  %cmp4338 = icmp sgt i32 %call42, 0
  br i1 %cmp4338, label %for.body.lr.ph, label %if.end66.loopexit

for.body.lr.ph:                                   ; preds = %sw.epilog
  %cmp31 = icmp ne ptr %p.1, %add.ptr
  %or.cond35 = or i1 %tobool.not, %cmp31
  %orflags.1 = select i1 %or.cond35, i8 %orflags.0, i8 64
  %or4834 = or disjoint i8 %orflags.1, %flags
  %wide.trip.count = zext nneg i32 %call42 to i64
  br label %for.body

for.body:                                         ; preds = %for.body.lr.ph, %if.end54
  %indvars.iv = phi i64 [ 0, %for.body.lr.ph ], [ %indvars.iv.next, %if.end54 ]
  %outlen.139 = phi i32 [ %outlen.042, %for.body.lr.ph ], [ %add, %if.end54 ]
  %arrayidx = getelementptr inbounds nuw [6 x i8], ptr %utfbuf, i64 0, i64 %indvars.iv
  %17 = load i8, ptr %arrayidx, align 1
  %conv45 = zext i8 %17 to i64
  %call50 = call fastcc i32 @do_esc_char(i64 noundef %conv45, i8 noundef zeroext %or4834, ptr noundef %quotes, ptr noundef %io_ch, ptr noundef %arg)
  %cmp51 = icmp slt i32 %call50, 0
  br i1 %cmp51, label %return, label %if.end54

if.end54:                                         ; preds = %for.body
  %add = add nuw nsw i32 %call50, %outlen.139
  %indvars.iv.next = add nuw nsw i64 %indvars.iv, 1
  %exitcond.not = icmp eq i64 %indvars.iv.next, %wide.trip.count
  br i1 %exitcond.not, label %if.end66.loopexit, label %for.body, !llvm.loop !13

if.end66.loopexit:                                ; preds = %if.end54, %sw.epilog
  %outlen.1.lcssa = phi i32 [ %outlen.042, %sw.epilog ], [ %add, %if.end54 ]
  %cmp.not = icmp eq ptr %p.1, %add.ptr
  br i1 %cmp.not, label %return, label %while.body, !llvm.loop !12

return:                                           ; preds = %sw.bb24, %if.end66.loopexit, %for.body, %sw.bb24.us, %sw.epilog.us, %if.end64.us, %entry, %while.body.lr.ph
  %retval.0 = phi i32 [ 0, %entry ], [ -1, %while.body.lr.ph ], [ -1, %sw.bb24.us ], [ -1, %sw.epilog.us ], [ %add65.us, %if.end64.us ], [ -1, %for.body ], [ -1, %sw.bb24 ], [ %outlen.1.lcssa, %if.end66.loopexit ]
  ret i32 %retval.0
}